; Function Attrs: mustprogress nofree norecurse nosync nounwind willreturn memory(argmem: write) uwtable
define void @_ZN7rocksdb11ReadOptionsC2ENS_3Env10IOActivityE(ptr nocapture noundef nonnull writeonly align 8 dereferenceable(154) %this, i8 noundef zeroext %_io_activity) unnamed_addr #8 align 2 personality ptr @__gxx_personality_v0 {
entry:
  %rate_limiter_priority = getelementptr inbounds i8, ptr %this, i64 44
  tail call void @llvm.memset.p0.i64(ptr noundef nonnull align 8 dereferenceable(44) %this, i8 0, i64 44, i1 false)
  store i32 4, ptr %rate_limiter_priority, align 4
  %value_size_soft_limit = getelementptr inbounds i8, ptr %this, i64 48
  store i64 -1, ptr %value_size_soft_limit, align 8
  %_M_engaged.i.i.i.i = getelementptr inbounds i8, ptr %this, i64 64
  store i8 0, ptr %_M_engaged.i.i.i.i, align 8
  %verify_checksums = getelementptr inbounds i8, ptr %this, i64 72
  store <4 x i8> <i8 1, i8 1, i8 0, i8 0>, ptr %verify_checksums, align 8
  %optimize_multiget_for_io = getelementptr inbounds i8, ptr %this, i64 76
  store i8 1, ptr %optimize_multiget_for_io, align 4
  %readahead_size = getelementptr inbounds i8, ptr %this, i64 80
  %auto_readahead_size = getelementptr inbounds i8, ptr %this, i64 152
  tail call void @llvm.memset.p0.i64(ptr noundef nonnull align 8 dereferenceable(72) %readahead_size, i8 0, i64 72, i1 false)
  store i8 1, ptr %auto_readahead_size, align 8
  %io_activity = getelementptr inbounds i8, ptr %this, i64 153
  store i8 %_io_activity, ptr %io_activity, align 1
  ret void
}